; Function Attrs: mustprogress uwtable
define noundef nonnull align 8 dereferenceable(24) ptr @_ZN32pxrInternal_v0_24__pxrReserved__14UsdRiSplineAPI23GetSchemaAttributeNamesEb(i1 noundef zeroext %0) local_unnamed_addr #0 align 2 personality ptr @__gxx_personality_v0 {
  %2 = load atomic i8, ptr @_ZGVZN32pxrInternal_v0_24__pxrReserved__14UsdRiSplineAPI23GetSchemaAttributeNamesEbE10localNames acquire, align 8
  %3 = icmp eq i8 %2, 0
  br i1 %3, label %4, label %8, !prof !4

4:                                                ; preds = %1
  %5 = tail call i32 @__cxa_guard_acquire(ptr nonnull @_ZGVZN32pxrInternal_v0_24__pxrReserved__14UsdRiSplineAPI23GetSchemaAttributeNamesEbE10localNames) #15
  %.not = icmp eq i32 %5, 0
  br i1 %.not, label %8, label %6

6:                                                ; preds = %4
  tail call void @llvm.memset.p0.i64(ptr noundef nonnull align 8 dereferenceable(24) @_ZZN32pxrInternal_v0_24__pxrReserved__14UsdRiSplineAPI23GetSchemaAttributeNamesEbE10localNames, i8 0, i64 24, i1 false)
  %7 = tail call i32 @__cxa_atexit(ptr nonnull @_ZNSt6vectorIN32pxrInternal_v0_24__pxrReserved__7TfTokenESaIS1_EED2Ev, ptr nonnull @_ZZN32pxrInternal_v0_24__pxrReserved__14UsdRiSplineAPI23GetSchemaAttributeNamesEbE10localNames, ptr nonnull @__dso_handle) #15
  tail call void @__cxa_guard_release(ptr nonnull @_ZGVZN32pxrInternal_v0_24__pxrReserved__14UsdRiSplineAPI23GetSchemaAttributeNamesEbE10localNames) #15
  br label %8

8:                                                ; preds = %6, %4, %1
  %9 = load atomic i8, ptr @_ZGVZN32pxrInternal_v0_24__pxrReserved__14UsdRiSplineAPI23GetSchemaAttributeNamesEbE8allNames acquire, align 8
  %10 = icmp eq i8 %9, 0
  br i1 %10, label %11, label %18, !prof !4

11:                                               ; preds = %8
  %12 = tail call i32 @__cxa_guard_acquire(ptr nonnull @_ZGVZN32pxrInternal_v0_24__pxrReserved__14UsdRiSplineAPI23GetSchemaAttributeNamesEbE8allNames) #15
  %.not3 = icmp eq i32 %12, 0
  br i1 %.not3, label %18, label %13

13:                                               ; preds = %11
  %14 = invoke noundef nonnull align 8 dereferenceable(24) ptr @_ZN32pxrInternal_v0_24__pxrReserved__16UsdAPISchemaBase23GetSchemaAttributeNamesEb(i1 noundef zeroext true)
          to label %15 unwind label %19

15:                                               ; preds = %13
  invoke void @_ZNSt6vectorIN32pxrInternal_v0_24__pxrReserved__7TfTokenESaIS1_EEC2ERKS3_(ptr noundef nonnull align 8 dereferenceable(24) @_ZZN32pxrInternal_v0_24__pxrReserved__14UsdRiSplineAPI23GetSchemaAttributeNamesEbE8allNames, ptr noundef nonnull align 8 dereferenceable(24) %14)
          to label %16 unwind label %19

16:                                               ; preds = %15
  %17 = tail call i32 @__cxa_atexit(ptr nonnull @_ZNSt6vectorIN32pxrInternal_v0_24__pxrReserved__7TfTokenESaIS1_EED2Ev, ptr nonnull @_ZZN32pxrInternal_v0_24__pxrReserved__14UsdRiSplineAPI23GetSchemaAttributeNamesEbE8allNames, ptr nonnull @__dso_handle) #15
  tail call void @__cxa_guard_release(ptr nonnull @_ZGVZN32pxrInternal_v0_24__pxrReserved__14UsdRiSplineAPI23GetSchemaAttributeNamesEbE8allNames) #15
  br label %18

18:                                               ; preds = %16, %11, %8
  %_ZZN32pxrInternal_v0_24__pxrReserved__14UsdRiSplineAPI23GetSchemaAttributeNamesEbE8allNames._ZZN32pxrInternal_v0_24__pxrReserved__14UsdRiSplineAPI23GetSchemaAttributeNamesEbE10localNames = select i1 %0, ptr @_ZZN32pxrInternal_v0_24__pxrReserved__14UsdRiSplineAPI23GetSchemaAttributeNamesEbE8allNames, ptr @_ZZN32pxrInternal_v0_24__pxrReserved__14UsdRiSplineAPI23GetSchemaAttributeNamesEbE10localNames
  ret ptr %_ZZN32pxrInternal_v0_24__pxrReserved__14UsdRiSplineAPI23GetSchemaAttributeNamesEbE8allNames._ZZN32pxrInternal_v0_24__pxrReserved__14UsdRiSplineAPI23GetSchemaAttributeNamesEbE10localNames

19:                                               ; preds = %15, %13
  %20 = landingpad { ptr, i32 }
          cleanup
  tail call void @__cxa_guard_abort(ptr nonnull @_ZGVZN32pxrInternal_v0_24__pxrReserved__14UsdRiSplineAPI23GetSchemaAttributeNamesEbE8allNames) #15
  resume { ptr, i32 } %20
}